target datalayout = "e-m:e-p270:32:32-p271:32:32-p272:64:64-i64:64-i128:128-f80:128-n8:16:32:64-S128"
target triple = "x86_64-pc-linux-gnu"

%struct.FunctionCallInfoBaseData = type { ptr, ptr, ptr, i32, i8, i16, [0 x %struct.NullableDatum] }
%struct.NullableDatum = type { i64, i8 }
%struct.BloomFilter = type { i32, i16, i8, i32, i32, [0 x i8] }
%struct.StringInfoData = type { ptr, i32, i32, i32 }

@.str.8 = private unnamed_addr constant [52 x i8] c"mode: hashed  nhashes: %u  nbits: %u  nbits_set: %u\00", align 1

; Function Attrs: inlinehint nounwind uwtable
define internal i64 @PointerGetDatum(ptr noundef %0) #3 {
  %2 = alloca ptr, align 8
  store ptr %0, ptr %2, align 8
  %3 = load ptr, ptr %2, align 8
  %4 = ptrtoint ptr %3 to i64
  ret i64 %4
}

; Function Attrs: inlinehint nounwind uwtable
define internal i64 @CStringGetDatum(ptr noundef %0) #3 {
  %2 = alloca ptr, align 8
  store ptr %0, ptr %2, align 8
  %3 = load ptr, ptr %2, align 8
  %4 = call i64 @PointerGetDatum(ptr noundef %3)
  ret i64 %4
}

; Function Attrs: inlinehint nounwind uwtable
define internal ptr @DatumGetPointer(i64 noundef %0) #3 {
  %2 = alloca i64, align 8
  store i64 %0, ptr %2, align 8
  %3 = load i64, ptr %2, align 8
  %4 = inttoptr i64 %3 to ptr
  ret ptr %4
}

; Function Attrs: nounwind uwtable
define dso_local i64 @brin_bloom_summary_out(ptr noundef %0) #0 {
  %2 = alloca ptr, align 8
  %3 = alloca ptr, align 8
  %4 = alloca %struct.StringInfoData, align 8
  store ptr %0, ptr %2, align 8
  call void @llvm.lifetime.start.p0(i64 8, ptr %3) #7
  call void @llvm.lifetime.start.p0(i64 24, ptr %4) #7
  %5 = load ptr, ptr %2, align 8
  %6 = getelementptr inbounds nuw %struct.FunctionCallInfoBaseData, ptr %5, i32 0, i32 6
  %7 = getelementptr inbounds [0 x %struct.NullableDatum], ptr %6, i64 0, i64 0
  %8 = getelementptr inbounds nuw %struct.NullableDatum, ptr %7, i32 0, i32 0
  %9 = load i64, ptr %8, align 8
  %10 = call ptr @DatumGetPointer(i64 noundef %9)
  %11 = call ptr @pg_detoast_datum(ptr noundef %10)
  store ptr %11, ptr %3, align 8
  call void @initStringInfo(ptr noundef %4)
  call void @appendStringInfoChar(ptr noundef %4, i8 noundef signext 123)
  %12 = load ptr, ptr %3, align 8
  %13 = getelementptr inbounds nuw %struct.BloomFilter, ptr %12, i32 0, i32 2
  %14 = load i8, ptr %13, align 2
  %15 = zext i8 %14 to i32
  %16 = load ptr, ptr %3, align 8
  %17 = getelementptr inbounds nuw %struct.BloomFilter, ptr %16, i32 0, i32 3
  %18 = load i32, ptr %17, align 4
  %19 = load ptr, ptr %3, align 8
  %20 = getelementptr inbounds nuw %struct.BloomFilter, ptr %19, i32 0, i32 4
  %21 = load i32, ptr %20, align 4
  call void (ptr, ptr, ...) @appendStringInfo(ptr noundef %4, ptr noundef @.str.8, i32 noundef %15, i32 noundef %18, i32 noundef %21)
  call void @appendStringInfoChar(ptr noundef %4, i8 noundef signext 125)
  %22 = getelementptr inbounds nuw %struct.StringInfoData, ptr %4, i32 0, i32 0
  %23 = load ptr, ptr %22, align 8
  %24 = call i64 @CStringGetDatum(ptr noundef %23)
  call void @llvm.lifetime.end.p0(i64 24, ptr %4) #7
  call void @llvm.lifetime.end.p0(i64 8, ptr %3) #7
  ret i64 %24
}