; Function Attrs: nounwind uwtable
define dso_local i64 @brin_bloom_summary_out(ptr noundef readonly captures(none) %0) local_unnamed_addr #0 {
  %2 = alloca %struct.StringInfoData, align 8
  call void @llvm.lifetime.start.p0(i64 24, ptr nonnull %2) #8
  %3 = getelementptr inbounds nuw i8, ptr %0, i64 32
  %4 = load i64, ptr %3, align 8
  %5 = inttoptr i64 %4 to ptr
  %6 = tail call ptr @pg_detoast_datum(ptr noundef %5) #8
  call void @initStringInfo(ptr noundef nonnull %2) #8
  call void @appendStringInfoChar(ptr noundef nonnull %2, i8 noundef signext 123) #8
  %7 = getelementptr inbounds nuw i8, ptr %6, i64 6
  %8 = load i8, ptr %7, align 2
  %9 = zext i8 %8 to i32
  %10 = getelementptr inbounds nuw i8, ptr %6, i64 8
  %11 = load i32, ptr %10, align 4
  %12 = getelementptr inbounds nuw i8, ptr %6, i64 12
  %13 = load i32, ptr %12, align 4
  call void (ptr, ptr, ...) @appendStringInfo(ptr noundef nonnull %2, ptr noundef nonnull @.str.8, i32 noundef %9, i32 noundef %11, i32 noundef %13) #8
  call void @appendStringInfoChar(ptr noundef nonnull %2, i8 noundef signext 125) #8
  %14 = load ptr, ptr %2, align 8
  %15 = ptrtoint ptr %14 to i64
  call void @llvm.lifetime.end.p0(i64 24, ptr nonnull %2) #8
  ret i64 %15
}